; Function Attrs: mustprogress nounwind uwtable
define dso_local void @_ZN4llvm28TargetLoweringObjectFileCOFF10InitializeERNS_9MCContextERKNS_13TargetMachineE(ptr noundef nonnull align 8 dereferenceable(984) %0, ptr noundef nonnull align 8 dereferenceable(2432) %1, ptr noundef nonnull align 8 dereferenceable(1232) %2) unnamed_addr #0 align 2 {
  tail call void @_ZN4llvm24TargetLoweringObjectFile10InitializeERNS_9MCContextERKNS_13TargetMachineE(ptr noundef nonnull align 8 dereferenceable(968) %0, ptr noundef nonnull align 8 dereferenceable(2432) %1, ptr noundef nonnull align 8 dereferenceable(1232) %2) #24
  %4 = getelementptr inbounds nuw i8, ptr %0, i64 976
  store ptr %2, ptr %4, align 8
  %5 = getelementptr inbounds i8, ptr %2, i64 572
  %6 = load i32, ptr %5, align 4
  %7 = icmp eq i32 %6, 14
  %8 = getelementptr inbounds i8, ptr %2, i64 576
  %9 = load i32, ptr %8, align 8
  %10 = icmp eq i32 %9, 0
  %11 = add i32 %9, -19
  %12 = icmp ult i32 %11, 2
  %13 = or i1 %10, %12
  %or.cond18 = select i1 %7, i1 %13, i1 false
  %14 = getelementptr inbounds nuw i8, ptr %0, i64 944
  br i1 %or.cond18, label %_ZNK4llvm6Triple24isWindowsMSVCEnvironmentEv.exit.thread, label %17

_ZNK4llvm6Triple24isWindowsMSVCEnvironmentEv.exit.thread: ; preds = %3
  %15 = tail call noundef ptr @_ZN4llvm9MCContext14getCOFFSectionENS_9StringRefEj(ptr noundef nonnull align 8 dereferenceable(2432) %1, ptr nonnull @.str.44, i64 8, i32 noundef 1073741888) #24
  store ptr %15, ptr %14, align 8
  %16 = tail call noundef ptr @_ZN4llvm9MCContext14getCOFFSectionENS_9StringRefEj(ptr noundef nonnull align 8 dereferenceable(2432) %1, ptr nonnull @.str.45, i64 8, i32 noundef 1073741888) #24
  br label %20

17:                                               ; preds = %3
  %18 = tail call noundef ptr @_ZN4llvm9MCContext14getCOFFSectionENS_9StringRefEj(ptr noundef nonnull align 8 dereferenceable(2432) %1, ptr nonnull @.str.19, i64 6, i32 noundef -1073741760) #24
  store ptr %18, ptr %14, align 8
  %19 = tail call noundef ptr @_ZN4llvm9MCContext14getCOFFSectionENS_9StringRefEj(ptr noundef nonnull align 8 dereferenceable(2432) %1, ptr nonnull @.str.20, i64 6, i32 noundef -1073741760) #24
  br label %20

20:                                               ; preds = %17, %_ZNK4llvm6Triple24isWindowsMSVCEnvironmentEv.exit.thread
  %.sink = phi ptr [ %16, %_ZNK4llvm6Triple24isWindowsMSVCEnvironmentEv.exit.thread ], [ %19, %17 ]
  %21 = getelementptr inbounds nuw i8, ptr %0, i64 952
  store ptr %.sink, ptr %21, align 8
  ret void
}